target datalayout = "e-m:e-p270:32:32-p271:32:32-p272:64:64-i64:64-i128:128-f80:128-n8:16:32:64-S128"
target triple = "x86_64-pc-linux-gnu"

%struct.Vec_Int_t_ = type { i32, i32, ptr }

; Function Attrs: inlinehint nounwind uwtable
define internal i32 @Vec_IntEntryLast(ptr noundef %0) #1 {
  %2 = alloca ptr, align 8
  store ptr %0, ptr %2, align 8, !tbaa !10
  %3 = load ptr, ptr %2, align 8, !tbaa !10
  %4 = getelementptr inbounds nuw %struct.Vec_Int_t_, ptr %3, i32 0, i32 2
  %5 = load ptr, ptr %4, align 8, !tbaa !44
  %6 = load ptr, ptr %2, align 8, !tbaa !10
  %7 = getelementptr inbounds nuw %struct.Vec_Int_t_, ptr %6, i32 0, i32 1
  %8 = load i32, ptr %7, align 4, !tbaa !42
  %9 = sub nsw i32 %8, 1
  %10 = sext i32 %9 to i64
  %11 = getelementptr inbounds i32, ptr %5, i64 %10
  %12 = load i32, ptr %11, align 4, !tbaa !12
  ret i32 %12
}

; Function Attrs: nounwind uwtable
define internal i32 @Vec_WecSortCompare5(ptr noundef %0, ptr noundef %1) #0 {
  %3 = alloca i32, align 4
  %4 = alloca ptr, align 8
  %5 = alloca ptr, align 8
  store ptr %0, ptr %4, align 8, !tbaa !10
  store ptr %1, ptr %5, align 8, !tbaa !10
  %6 = load ptr, ptr %4, align 8, !tbaa !10
  %7 = call i32 @Vec_IntEntryLast(ptr noundef %6)
  %8 = load ptr, ptr %5, align 8, !tbaa !10
  %9 = call i32 @Vec_IntEntryLast(ptr noundef %8)
  %10 = icmp slt i32 %7, %9
  br i1 %10, label %11, label %12

11:                                               ; preds = %2
  store i32 -1, ptr %3, align 4
  br label %20

12:                                               ; preds = %2
  %13 = load ptr, ptr %4, align 8, !tbaa !10
  %14 = call i32 @Vec_IntEntryLast(ptr noundef %13)
  %15 = load ptr, ptr %5, align 8, !tbaa !10
  %16 = call i32 @Vec_IntEntryLast(ptr noundef %15)
  %17 = icmp sgt i32 %14, %16
  br i1 %17, label %18, label %19

18:                                               ; preds = %12
  store i32 1, ptr %3, align 4
  br label %20

19:                                               ; preds = %12
  store i32 0, ptr %3, align 4
  br label %20

20:                                               ; preds = %19, %18, %11
  %21 = load i32, ptr %3, align 4
  ret i32 %21
}